target datalayout = "e-m:e-p270:32:32-p271:32:32-p272:64:64-i64:64-i128:128-f80:128-n8:16:32:64-S128"
target triple = "x86_64-pc-linux-gnu"

%"class.sls::array_plugin" = type { %"class.sls::plugin.base", ptr, %class.array_util, %class.scoped_ptr, %class.scoped_ptr.0, i8, i8, %"struct.sls::array_plugin::stats", %class.svector }
%"class.sls::plugin.base" = type <{ ptr, ptr, ptr, i32 }>
%class.array_util = type { %class.array_recognizers, ptr }
%class.array_recognizers = type { i32 }
%class.scoped_ptr = type { ptr }
%class.scoped_ptr.0 = type { ptr }
%"struct.sls::array_plugin::stats" = type { i32, i32 }
%class.svector = type { %class.vector }
%class.vector = type { ptr }

@.str.17 = private unnamed_addr constant [20 x i8] c"sls-array-conflicts\00", align 1
@.str.18 = private unnamed_addr constant [17 x i8] c"sls-array-axioms\00", align 1

; Function Attrs: mustprogress uwtable
define hidden void @_ZNK3sls12array_plugin18collect_statisticsER10statistics(ptr noundef nonnull align 8 dereferenceable(96) %0, ptr noundef nonnull align 8 dereferenceable(16) %1) unnamed_addr #4 align 2 {
  %3 = alloca ptr, align 8
  %4 = alloca ptr, align 8
  store ptr %0, ptr %3, align 8, !tbaa !3
  store ptr %1, ptr %4, align 8, !tbaa !332
  %5 = load ptr, ptr %3, align 8
  %6 = load ptr, ptr %4, align 8, !tbaa !332
  %7 = getelementptr inbounds nuw %"class.sls::array_plugin", ptr %5, i32 0, i32 7
  %8 = getelementptr inbounds nuw %"struct.sls::array_plugin::stats", ptr %7, i32 0, i32 0
  %9 = load i32, ptr %8, align 4, !tbaa !140
  call void @_ZN10statistics6updateEPKcj(ptr noundef nonnull align 8 dereferenceable(16) %6, ptr noundef @.str.17, i32 noundef %9)
  %10 = load ptr, ptr %4, align 8, !tbaa !332
  %11 = getelementptr inbounds nuw %"class.sls::array_plugin", ptr %5, i32 0, i32 7
  %12 = getelementptr inbounds nuw %"struct.sls::array_plugin::stats", ptr %11, i32 0, i32 1
  %13 = load i32, ptr %12, align 4, !tbaa !166
  call void @_ZN10statistics6updateEPKcj(ptr noundef nonnull align 8 dereferenceable(16) %10, ptr noundef @.str.18, i32 noundef %13)
  ret void
}